(dp0
I512000
I273
sI520200
I278
sI469001
I239
sI469002
I240
sI469003
I241
sI370700
I141
sI469005
I242
sI469006
I243
sI469007
I244
sI430100
I187
sI131100
I13
sI469021
I245
sI469022
I246
sI469023
I247
sI469024
I248
sI469025
I249
sI469026
I250
sI469027
I251
sI469028
I252
sI469029
I253
sI469030
I254
sI450600
I227
sI411700
I168
sI620600
I324
sI530100
I286
sI522300
I283
sI530500
I289
sI652300
I350
sI440400
I204
sI150200
I26
sI211300
I49
sI350300
I117
sI610400
I312
sI520300
I279
sI370800
I142
sI420200
I171
sI430200
I188
sI532500
I295
sI340100
I98
sI450700
I228
sI510100
I256
sI360600
I129
sI620700
I325
sI530600
I290
sI371400
I148
sI440500
I205
sI350400
I118
sI610500
I313
sI520400
I280
sI513400
I276
sI370900
I143
sI430300
I189
sI340200
I99
sI450800
I229
sI360700
I130
sI211200
I48
sI420100
I170
sI530700
I291
sI440600
I206
sI500000
I255
sI350500
I119
sI610600
I314
sI622900
I331
sI371000
I144
sI360500
I128
sI532800
I297
sI340300
I100
sI211000
I46
sI450900
I230
sI510300
I257
sI360800
I131
sI640400
I344
sI620900
I327
sI522600
I284
sI530800
I292
sI330100
I87
sI440700
I207
sI350600
I120
sI610700
I315
sI623000
I332
sI520600
I282
sI371100
I145
sI430500
I191
sI652700
I351
sI340400
I101
sI451000
I231
sI510400
I258
sI360900
I132
sI621000
I328
sI420300
I172
sI530900
I293
sI330200
I88
sI532900
I298
sI440800
I208
sI350700
I121
sI610800
I316
sI460200
I237
sI410100
I152
sI371200
I146
sI320400
I77
sI430600
I192
sI340500
I102
sI451100
I232
sI510500
I259
sI361000
I133
sI621100
I329
sI360200
I125
sI421300
I181
sI330300
I89
sI440900
I209
sI620300
I321
sI330700
I93
sI350800
I122
sI150100
I25
sI410200
I153
sI640100
I341
sI653000
I354
sI320100
I74
sI430700
I193
sI340600
I103
sI451200
I233
sI510600
I260
sI361100
I134
sI621200
I330
sI420500
I173
sI130500
I7
sI330400
I90
sI445100
I219
sI654000
I357
sI211400
I50
sI350900
I123
sI611000
I318
sI410300
I154
sI820000
I370
sI320200
I75
sI522700
I285
sI430800
I194
sI532600
I296
sI230100
I60
sI440100
I201
sI340700
I104
sI451300
I234
sI510700
I261
sI310000
I73
sI420600
I174
sI330500
I91
sI371500
I149
sI445200
I220
sI150300
I27
sI410400
I155
sI320300
I76
sI430900
I195
sI230200
I61
sI533300
I300
sI340800
I105
sI140100
I14
sI451400
I235
sI510800
I262
sI420700
I175
sI330600
I92
sI441200
I210
sI445300
I221
sI654200
I358
sI150400
I28
sI410500
I156
sI422800
I182
sI431000
I196
sI652100
I348
sI230300
I62
sI900001
I371
sI900002
I372
sI900003
I373
sI900004
I374
sI140200
I15
sI211100
I47
sI510900
I263
sI640500
I345
sI420800
I176
sI220100
I51
sI429004
I183
sI429005
I184
sI429006
I185
sI441300
I211
sI650200
I347
sI654300
I359
sI429021
I186
sI150500
I29
sI410600
I157
sI371700
I151
sI431100
I197
sI230400
I63
sI652800
I352
sI341000
I106
sI140300
I16
sI810000
I369
sI511000
I264
sI410800
I159
sI420900
I177
sI220200
I52
sI330800
I94
sI130100
I3
sI441400
I212
sI150600
I30
sI460300
I238
sI410700
I158
sI320600
I79
sI431200
I198
sI230500
I64
sI511300
I266
sI341100
I107
sI140400
I17
sI511100
I265
sI222400
I59
sI421000
I178
sI360300
I126
sI220300
I53
sI330900
I95
sI130200
I4
sI441500
I213
sI210800
I44
sI150700
I31
sI513200
I274
sI230600
I65
sI210100
I37
sI419001
I169
sI320700
I80
sI120000
I2
sI431300
I199
sI640200
I342
sI341200
I108
sI140500
I18
sI632700
I339
sI421100
I179
sI220400
I54
sI331000
I96
sI232700
I72
sI441600
I214
sI150800
I32
sI410900
I160
sI210200
I38
sI320800
I81
sI632100
I334
sI230700
I66
sI440200
I202
sI341300
I109
sI140600
I19
sI460100
I236
sI421200
I180
sI630100
I333
sI659001
I360
sI650100
I346
sI331100
I97
sI130400
I6
sI371600
I150
sI441700
I215
sI710000
I368
sI150900
I33
sI411000
I161
sI210300
I39
sI659008
I367
sI320900
I82
sI632200
I335
sI230800
I67
sI533400
I301
sI542100
I303
sI341400
I110
sI620100
I319
sI140700
I20
sI511400
I267
sI110000
I1
sI370100
I135
sI220600
I56
sI540100
I302
sI441800
I216
sI411100
I162
sI210400
I40
sI321000
I83
sI130300
I5
sI632300
I336
sI652200
I349
sI230900
I68
sI542200
I304
sI610900
I317
sI341500
I111
sI140800
I21
sI620800
I326
sI511500
I268
sI370200
I136
sI220700
I57
sI130600
I8
sI441900
I217
sI450100
I222
sI152500
I35
sI659002
I361
sI659003
I362
sI659004
I364
sI659006
I365
sI659007
I366
sI411200
I163
sI210500
I41
sI321100
I84
sI231000
I69
sI371300
I147
sI542300
I305
sI341600
I112
sI140900
I22
sI511600
I269
sI513300
I275
sI370300
I137
sI220800
I58
sI533100
I299
sI130700
I9
sI442000
I218
sI450200
I223
sI360100
I124
sI210600
I42
sI321200
I85
sI632500
I337
sI231100
I70
sI542400
I306
sI341700
I113
sI141000
I23
sI433100
I200
sI511700
I270
sI370400
I138
sI360400
I127
sI653100
I355
sI130800
I10
sI210900
I45
sI450300
I224
sI411400
I165
sI640300
I343
sI210700
I43
sI321300
I86
sI632600
I338
sI231200
I71
sI542500
I307
sI341800
I114
sI141100
I24
sI152200
I34
sI610100
I309
sI511800
I271
sI520500
I281
sI632800
I340
sI370500
I139
sI532300
I294
sI130900
I11
sI450400
I225
sI411500
I166
sI620400
I322
sI652900
I353
sI530300
I287
sI430400
I190
sI542600
I308
sI653200
I356
sI350100
I115
sI610200
I310
sI152900
I36
sI511900
I272
sI520100
I277
sI370600
I140
sI131000
I12
sI320500
I78
sI450500
I226
sI411600
I167
sI620500
I323
sI411300
I164
sI530400
I288
sI440300
I203
sI620200
I320
sI350200
I116
sI220500
I55
sI610300
I311
s.