(dp0
I512000
I333
sI520200
F374.8
sI469001
F462.9
sI469002
F457.6
sI469003
F454.7
sI370700
F251.1
sI469005
F454.4
sI469006
F462.7
sI469007
F459.4
sI532500
F411.8
sI131100
F237.6
sI469021
F452.9
sI469022
F456.6
sI469023
F452.3
sI469024
F450.4
sI469025
F457.9
sI469026
F457.1
sI469027
F463.2
sI469028
F465.8
sI469029
F464.4
sI469030
F460.1
sI450600
F430.6
sI360500
F360.5
sI620600
F235.1
sI530100
F394.5
sI522300
F392.2
sI530500
F391.9
sI652300
F151.3
sI440400
F424.1
sI150200
F198.5
sI620900
F211.1
sI350300
F387.9
sI610400
F281.4
sI520300
F361.6
sI610900
F301.9
sI420200
F332.2
sI532600
F411.4
sI430100
F355.6
sI340100
F312.5
sI450700
F427.4
sI510100
F327.7
sI360600
F355.3
sI620700
F221.9
sI530600
F366.1
sI141000
F259.1
sI440500
F411.9
sI350400
F378.6
sI610500
F279.3
sI520400
F378.7
sI513400
F359.7
sI370900
F257.6
sI430300
F360.3
sI340200
F318.2
sI450800
F414.6
sI360700
F383.6
sI211200
F176.8
sI420100
F327.4
sI530700
F371.7
sI440600
F415.7
sI429004
F330.2
sI500000
F339.8
sI350500
F394.6
sI610600
F252.7
sI622900
F265.3
sI371000
F240.6
sI411700
F297.9
sI532800
F427.1
sI340300
F299.1
sI211000
F190.1
sI450900
I420
sI510300
F342.5
sI360800
F368.7
sI640400
I260
sI211300
F185.9
sI522600
F374.9
sI530800
F417.9
sI330100
F331.3
sI440700
F420.6
sI350600
F398.7
sI610700
F297.2
sI623000
F273.2
sI520600
F361.5
sI371100
F267.7
sI532900
F386.2
sI652700
F138.3
sI340400
F302.6
sI451000
F405.7
sI510400
F374.9
sI360900
F360.5
sI621000
F263.9
sI420300
F302.6
sI530900
I406
sI330200
F336.1
sI430500
F367.3
sI440800
F435.3
sI350700
F374.2
sI610800
F230.4
sI511400
F333.7
sI410100
F276.2
sI371200
F257.4
sI320400
F312.7
sI430600
F342.3
sI340500
F314.4
sI451100
I400
sI510500
I348
sI361000
F358.9
sI621100
F265.6
sI360200
F343.3
sI421300
F314.1
sI330300
F358.4
sI440900
F430.9
sI210700
F192.5
sI350800
F392.3
sI150100
F195.9
sI410200
F275.5
sI640100
F227.7
sI371300
F271.6
sI533100
F399.6
sI340600
F286.1
sI451200
F396.7
sI510600
I321
sI361100
I353
sI621200
I293
sI420500
F326.2
sI130500
F246.4
sI330400
F325.6
sI370800
F267.7
sI445100
F408.5
sI654000
F152.7
sI211400
F197.8
sI350900
F373.9
sI611000
F287.2
sI410300
F277.8
sI410400
F288.5
sI371400
F241.6
sI522700
F378.7
sI430800
F345.1
sI430200
F360.4
sI230100
I125
sI440100
F414.4
sI340700
F323.2
sI451300
F407.4
sI510700
F316.8
sI310000
F319.7
sI420600
F310.2
sI330500
F323.8
sI141100
F240.5
sI445200
F409.7
sI150300
F212.1
sI820000
I425
sI371500
F254.3
sI430900
F351.8
sI230200
F101.6
sI533300
F383.4
sI340800
I328
sI140100
F235.9
sI451400
F422.9
sI510800
I305
sI420700
F329.9
sI330600
F334.2
sI441200
F415.4
sI650100
I154
sI654200
F110.9
sI150400
F176.3
sI410500
F258.9
sI371600
F242.3
sI431000
F384.3
sI652100
F166.5
sI230300
F132.6
sI900001
F257.5
sI900002
F232.5
sI900003
F242.6
sI900004
F412.5
sI140200
F206.4
sI211100
F192.1
sI152500
F152.5
sI640500
F240.7
sI420800
F322.1
sI220100
F154.1
sI330700
F345.6
sI429005
F329.7
sI429006
F326.6
sI441300
F414.6
sI650200
F128.4
sI654300
F94.1
sI429021
F313.5
sI152900
F222.9
sI150500
F156.5
sI410600
F263.4
sI371700
I270
sI431100
F376.8
sI230400
F101.7
sI652800
F183.2
sI341000
I338
sI140300
F236.1
sI810000
I424
sI511000
F339.6
sI513200
F311.6
sI420900
F323.4
sI220200
F153.8
sI330800
F346.9
sI130100
F233.6
sI441400
F401.3
sI150600
F212.7
sI460300
F484.1
sI410700
F269.1
sI320600
F310.6
sI431200
F363.6
sI230500
F112.4
sI341100
F306.6
sI140400
F257.7
sI511100
F339.9
sI222400
F167.4
sI421000
F330.5
sI411500
F308.5
sI220300
F163.5
sI330900
F334.8
sI130200
F212.4
sI441500
F418.3
sI620400
F253.2
sI150700
F72.6
sI410800
F270.2
sI230600
F113.3
sI210100
F182.6
sI419001
F272.1
sI320700
F278.1
sI120000
F219.8
sI431300
F361.9
sI640200
F221.1
sI341200
F299.4
sI140500
F266.7
sI632700
F297.9
sI421100
F329.1
sI220400
F167.4
sI331000
F350.6
sI232700
F21.3
sI441600
F407.5
sI150800
F197.3
sI410900
F263.2
sI210200
F222.1
sI320800
F290.4
sI632100
F253.7
sI230700
F95.9
sI440200
F395.3
sI341300
I290
sI140600
F216.5
sI460100
F448.9
sI421200
F336.5
sI630100
F252.2
sI331100
F352.8
sI130400
F252.1
sI422800
F331.3
sI441700
F428.7
sI710000
F392.6
sI150900
F193.9
sI411000
F285.1
sI510900
F328.2
sI210300
F192.3
sI659008
F152.5
sI320900
F293.7
sI632200
F247.9
sI230800
F110.1
sI533400
F360.5
sI542100
F320.8
sI341400
F314.8
sI210500
F189.7
sI140700
F238.3
sI460200
F468.6
sI110000
F208.7
sI370100
F251.8
sI220600
F180.8
sI540100
F338.8
sI441800
F408.2
sI411100
F290.8
sI210400
F181.6
sI321000
F305.5
sI130300
F208.3
sI632300
F266.3
sI652200
F168.4
sI230900
F125.5
sI320200
F316.6
sI542200
F343.7
sI445300
F416.9
sI341500
F313.6
sI140800
F272.6
sI620800
I266
sI511500
F349.5
sI370200
F259.3
sI220700
F134.9
sI130600
F222.6
sI441900
F415.7
sI450100
I418
sI659001
F147.1
sI659002
I200
sI659003
F209.3
sI659004
F149.1
sI659006
I183
sI659007
F139.6
sI411200
F275.8
sI620100
F259.4
sI320300
I283
sI321100
I308
sI231000
F143.5
sI652900
F191.5
sI542300
F343.3
sI341600
F287.5
sI140900
F228.7
sI511600
F329.1
sI513300
I334
sI370300
F249.7
sI220800
F127.8
sI430700
F346.1
sI130700
F196.2
sI442000
F421.3
sI450200
F400.9
sI360100
F350.3
sI210600
F207.4
sI321200
F304.7
sI632500
F256.5
sI231100
I56
sI542400
F316.7
sI341700
F326.6
sI653000
F211.3
sI433100
F354.7
sI320100
F309.6
sI511700
I320
sI370400
F275.4
sI411600
F290.2
sI130800
F194.4
sI210900
F179.6
sI450300
I390
sI411400
F280.4
sI640300
F234.2
sI620300
F227.3
sI321300
I286
sI632600
F279.6
sI231200
F112.3
sI542500
F304.2
sI341800
F323.2
sI653100
F214.6
sI152200
I121
sI610100
F281.3
sI511800
F334.8
sI520500
F366.5
sI530400
F400.6
sI370500
F241.6
sI532300
F392.6
sI130900
F230.2
sI450400
F410.5
sI360300
F362.8
sI210800
F198.4
sI530300
F387.5
sI430400
F371.3
sI542600
F338.8
sI653200
F245.8
sI350100
F380.8
sI610200
F274.3
sI511300
F324.5
sI511900
I312
sI520100
F374.1
sI370600
F241.2
sI131000
F213.7
sI320500
F318.9
sI450500
F432.9
sI360400
F338.1
sI620500
F278.3
sI411300
F298.1
sI632800
F242.4
sI440300
I421
sI620200
F210.6
sI350200
F399.1
sI220500
F183.7
sI610300
I281
s.