(dp0
I512000
F323.6
sI520200
F325.7
sI469001
F374.4
sI469002
F384.3
sI469003
I375
sI370700
F474.6
sI469005
F387.7
sI469006
F383.5
sI469007
F365.4
sI532500
F310.6
sI131100
F438.3
sI469021
F383.1
sI469022
F380.5
sI469023
F379.5
sI469024
F376.2
sI469025
F373.7
sI469026
F369.6
sI469027
F370.8
sI469028
F379.8
sI469029
F376.3
sI469030
F377.7
sI450600
F362.3
sI360500
F430.5
sI620600
F302.9
sI530100
F304.9
sI522300
F326.5
sI530500
F266.8
sI652300
F143.7
sI440400
F416.5
sI150200
F377.7
sI620900
F259.9
sI350300
I473
sI610400
I366
sI520300
F347.5
sI610900
F369.3
sI420200
F431.7
sI532600
F319.3
sI430100
F409.9
sI340100
F454.5
sI450700
F365.4
sI510100
F317.8
sI360600
F452.8
sI620700
F280.2
sI530600
F314.1
sI141000
F395.2
sI440500
F448.8
sI350400
F458.7
sI610500
F374.3
sI520400
F337.3
sI513400
F299.1
sI370900
I453
sI430300
I410
sI340200
I467
sI450800
F375.2
sI360700
F430.7
sI211200
I522
sI420100
F424.1
sI530700
F277.9
sI440600
F411.8
sI429004
F415.3
sI500000
F343.6
sI350500
F469.5
sI610600
F374.1
sI622900
F308.9
sI371000
F505.3
sI411700
F421.2
sI532800
F283.8
sI340300
F456.2
sI211000
F516.9
sI450900
F381.1
sI510300
F325.2
sI360800
F431.3
sI640400
F340.4
sI211300
F487.9
sI522600
F358.4
sI530800
F285.6
sI330100
F484.9
sI440700
F411.4
sI350600
F458.8
sI610700
F348.5
sI623000
F305.8
sI520600
I371
sI371100
F478.4
sI532900
F278.3
sI652700
F89.2
sI340400
F452.1
sI451000
F344.3
sI510400
F293.4
sI360900
F425.3
sI621000
F354.9
sI420300
F387.7
sI530900
F276.3
sI330200
F499.4
sI430500
F394.6
sI440800
F383.1
sI350700
F464.3
sI610800
F376.6
sI511400
F315.5
sI410100
F417.1
sI371200
F459.1
sI320400
I483
sI430600
F411.9
sI340500
F467.8
sI451100
F395.7
sI510500
I332
sI361000
F445.4
sI621100
F323.6
sI360200
I454
sI421300
F414.5
sI330300
F490.5
sI440900
I389
sI210700
I495
sI350800
F452.3
sI150100
F397.6
sI410200
F424.1
sI640100
F340.2
sI371300
F466.2
sI533100
F260.8
sI340600
I450
sI451200
F359.5
sI510600
F321.2
sI361100
F461.9
sI621200
F326.6
sI420500
F392.8
sI130500
F426.2
sI330400
F491.1
sI370800
F447.8
sI445100
F448.2
sI654000
F81.5
sI211400
I492
sI350900
F478.6
sI611000
F378.8
sI410300
F404.9
sI410400
F412.6
sI371400
F445.4
sI522700
F353.7
sI430800
F384.4
sI430200
F411.9
sI230100
F551.2
sI440100
F413.3
sI340700
F460.5
sI451300
F371.3
sI510700
F324.1
sI310000
F498.6
sI420600
F401.4
sI330500
F484.2
sI141100
F391.3
sI445200
F445.6
sI150300
F346.1
sI820000
F416.2
sI371500
F441.6
sI430900
F403.9
sI230200
I524
sI533300
F263.6
sI340800
F452.8
sI140100
F405.9
sI451400
I352
sI510800
F336.2
sI420700
F430.2
sI330600
F489.3
sI441200
I405
sI650100
F146.9
sI654200
F98.7
sI150400
F471.7
sI410500
I425
sI371600
F462.2
sI431000
F410.7
sI652100
F163.2
sI230300
F597.2
sI900001
F60.4
sI900002
F67.6
sI900003
F88.4
sI900004
F308.2
sI140200
F413.7
sI211100
F504.8
sI152500
F442.2
sI640500
F329.5
sI420800
F402.2
sI220100
F538.6
sI330700
F479.6
sI429005
F409.5
sI429006
F412.3
sI441300
F425.3
sI650200
F118.6
sI654300
F152.3
sI429021
F386.5
sI152900
I335
sI150500
F506.6
sI410600
I424
sI371700
F436.3
sI431100
F396.2
sI230400
F590.2
sI652800
F131.6
sI341000
I466
sI140300
F416.6
sI810000
F422.6
sI511000
F328.1
sI513200
F298.6
sI420900
F420.1
sI220200
F551.3
sI330800
F471.4
sI130100
F426.3
sI441400
I443
sI150600
F377.1
sI460300
F403.7
sI410700
F420.2
sI320600
F492.6
sI431200
F379.4
sI230500
F599.2
sI341100
F465.8
sI140400
F411.8
sI511100
F314.6
sI222400
I582
sI421000
F402.7
sI411500
F421.9
sI220300
F528.5
sI330900
F506.2
sI130200
F464.4
sI441500
F435.2
sI620400
F318.5
sI150700
F480.8
sI410800
F413.1
sI230600
F536.3
sI210100
F518.9
sI419001
F406.4
sI320700
F475.2
sI120000
F454.2
sI431300
F400.1
sI640200
F341.8
sI341200
F439.8
sI140500
I409
sI632700
F245.3
sI421100
I430
sI220400
F536.7
sI331000
I498
sI232700
F532.2
sI441600
F428.2
sI150800
F352.3
sI410900
F431.6
sI210200
I500
sI320800
I473
sI632100
F297.4
sI230700
F575.1
sI440200
F416.8
sI341300
F451.7
sI140600
F404.7
sI460100
F381.5
sI421200
F424.3
sI630100
I294
sI331100
F482.5
sI130400
F426.5
sI422800
F374.1
sI441700
I400
sI710000
F498.9
sI150900
F411.9
sI411000
F419.4
sI510900
F333.6
sI210300
F514.4
sI659008
F76.1
sI320900
I485
sI632200
F284.9
sI230800
F590.5
sI533400
F272.4
sI542100
F246.1
sI341400
F459.3
sI210500
F522.4
sI140700
I408
sI460200
F374.3
sI110000
I446
sI370100
F453.4
sI220600
I550
sI540100
F183.5
sI441800
F411.1
sI411100
F421.1
sI210400
F524.4
sI321000
F477.2
sI130300
F479.1
sI632300
F296.5
sI652200
F208.2
sI230900
F597.6
sI320200
F486.5
sI542200
F190.1
sI445300
F400.6
sI341500
F447.1
sI140800
F389.9
sI620800
F344.8
sI511500
F323.7
sI370200
F487.2
sI220700
F533.4
sI130600
F436.2
sI441900
F418.4
sI450100
F362.4
sI659001
F130.9
sI659002
F81.1
sI659003
F58.1
sI659004
F146.1
sI659006
F125.6
sI659007
F92.7
sI411200
F391.9
sI620100
F315.3
sI320300
F455.1
sI321100
F477.3
sI231000
F583.3
sI652900
F70.5
sI542300
I160
sI341600
F439.4
sI140900
F407.8
sI511600
F344.4
sI513300
F295.9
sI370300
F463.1
sI220800
F512.8
sI430700
I397
sI130700
F430.2
sI442000
F414.6
sI450200
F373.3
sI360100
F440.2
sI210600
F528.5
sI321200
F482.5
sI632500
I282
sI231100
F561.5
sI542400
F192.9
sI341700
F457.2
sI653000
I28
sI433100
F376.7
sI320100
F470.8
sI511700
F353.1
sI370400
F455.5
sI411600
F428.2
sI130800
F462.1
sI210900
F500.6
sI450300
F382.4
sI411400
F438.2
sI640300
F339.9
sI620300
F298.2
sI321300
F465.4
sI632600
F278.1
sI231200
F555.7
sI542500
F68.9
sI341800
F470.4
sI653100
F26.1
sI152200
F504.7
sI610100
F368.4
sI511800
F306.8
sI520500
F330.4
sI530400
I302
sI370500
F469.5
sI532300
F291.4
sI130900
F450.4
sI450400
F392.7
sI360300
F419.4
sI210800
F506.5
sI530300
I315
sI430400
F406.1
sI542600
F216.9
sI653200
I67
sI350100
I476
sI610200
F368.4
sI511300
I339
sI511900
F345.6
sI520100
F344.4
sI370600
F498.3
sI131000
F448.8
sI320500
F489.4
sI450500
F370.3
sI360400
F441.7
sI620500
I335
sI411300
F405.7
sI632800
F248.2
sI440300
F421.5
sI620200
F257.8
sI350200
F463.4
sI220500
I545
sI610300
F350.7
s.